target datalayout = "e-m:e-p270:32:32-p271:32:32-p272:64:64-i64:64-i128:128-f80:128-n8:16:32:64-S128"
target triple = "x86_64-pc-linux-gnu"

; Function Attrs: nounwind uwtable
define internal i32 @big2_toUtf16(ptr noundef %0, ptr noundef %1, ptr noundef %2, ptr noundef %3, ptr noundef %4) #0 {
  %6 = alloca i32, align 4
  %7 = alloca ptr, align 8
  %8 = alloca ptr, align 8
  %9 = alloca ptr, align 8
  %10 = alloca ptr, align 8
  %11 = alloca ptr, align 8
  %12 = alloca i32, align 4
  %13 = alloca i32, align 4
  store ptr %0, ptr %7, align 8, !tbaa !45
  store ptr %1, ptr %8, align 8, !tbaa !9
  store ptr %2, ptr %9, align 8, !tbaa !4
  store ptr %3, ptr %10, align 8, !tbaa !47
  store ptr %4, ptr %11, align 8, !tbaa !18
  call void @llvm.lifetime.start.p0(i64 4, ptr %12) #4
  store i32 0, ptr %12, align 4, !tbaa !16
  %14 = load ptr, ptr %8, align 8, !tbaa !9
  %15 = load ptr, ptr %14, align 8, !tbaa !4
  %16 = load ptr, ptr %9, align 8, !tbaa !4
  %17 = load ptr, ptr %8, align 8, !tbaa !9
  %18 = load ptr, ptr %17, align 8, !tbaa !4
  %19 = ptrtoint ptr %16 to i64
  %20 = ptrtoint ptr %18 to i64
  %21 = sub i64 %19, %20
  %22 = ashr i64 %21, 1
  %23 = shl i64 %22, 1
  %24 = getelementptr inbounds i8, ptr %15, i64 %23
  store ptr %24, ptr %9, align 8, !tbaa !4
  %25 = load ptr, ptr %9, align 8, !tbaa !4
  %26 = load ptr, ptr %8, align 8, !tbaa !9
  %27 = load ptr, ptr %26, align 8, !tbaa !4
  %28 = ptrtoint ptr %25 to i64
  %29 = ptrtoint ptr %27 to i64
  %30 = sub i64 %28, %29
  %31 = load ptr, ptr %11, align 8, !tbaa !18
  %32 = load ptr, ptr %10, align 8, !tbaa !47
  %33 = load ptr, ptr %32, align 8, !tbaa !18
  %34 = ptrtoint ptr %31 to i64
  %35 = ptrtoint ptr %33 to i64
  %36 = sub i64 %34, %35
  %37 = sdiv exact i64 %36, 2
  %38 = shl i64 %37, 1
  %39 = icmp sgt i64 %30, %38
  br i1 %39, label %40, label %51

40:                                               ; preds = %5
  %41 = load ptr, ptr %9, align 8, !tbaa !4
  %42 = getelementptr inbounds i8, ptr %41, i64 -2
  %43 = getelementptr inbounds i8, ptr %42, i64 0
  %44 = load i8, ptr %43, align 1, !tbaa !13
  %45 = zext i8 %44 to i32
  %46 = and i32 %45, 248
  %47 = icmp eq i32 %46, 216
  br i1 %47, label %48, label %51

48:                                               ; preds = %40
  %49 = load ptr, ptr %9, align 8, !tbaa !4
  %50 = getelementptr inbounds i8, ptr %49, i64 -2
  store ptr %50, ptr %9, align 8, !tbaa !4
  store i32 1, ptr %12, align 4, !tbaa !16
  br label %51

51:                                               ; preds = %48, %40, %5
  br label %52

52:                                               ; preds = %81, %51
  %53 = load ptr, ptr %8, align 8, !tbaa !9
  %54 = load ptr, ptr %53, align 8, !tbaa !4
  %55 = load ptr, ptr %9, align 8, !tbaa !4
  %56 = icmp ult ptr %54, %55
  br i1 %56, label %57, label %62

57:                                               ; preds = %52
  %58 = load ptr, ptr %10, align 8, !tbaa !47
  %59 = load ptr, ptr %58, align 8, !tbaa !18
  %60 = load ptr, ptr %11, align 8, !tbaa !18
  %61 = icmp ult ptr %59, %60
  br label %62

62:                                               ; preds = %57, %52
  %63 = phi i1 [ false, %52 ], [ %61, %57 ]
  br i1 %63, label %64, label %85

64:                                               ; preds = %62
  %65 = load ptr, ptr %8, align 8, !tbaa !9
  %66 = load ptr, ptr %65, align 8, !tbaa !4
  %67 = getelementptr inbounds i8, ptr %66, i64 0
  %68 = load i8, ptr %67, align 1, !tbaa !13
  %69 = zext i8 %68 to i32
  %70 = shl i32 %69, 8
  %71 = load ptr, ptr %8, align 8, !tbaa !9
  %72 = load ptr, ptr %71, align 8, !tbaa !4
  %73 = getelementptr inbounds i8, ptr %72, i64 1
  %74 = load i8, ptr %73, align 1, !tbaa !13
  %75 = zext i8 %74 to i32
  %76 = or i32 %70, %75
  %77 = trunc i32 %76 to i16
  %78 = load ptr, ptr %10, align 8, !tbaa !47
  %79 = load ptr, ptr %78, align 8, !tbaa !18
  %80 = getelementptr inbounds nuw i16, ptr %79, i32 1
  store ptr %80, ptr %78, align 8, !tbaa !18
  store i16 %77, ptr %79, align 2, !tbaa !20
  br label %81

81:                                               ; preds = %64
  %82 = load ptr, ptr %8, align 8, !tbaa !9
  %83 = load ptr, ptr %82, align 8, !tbaa !4
  %84 = getelementptr inbounds i8, ptr %83, i64 2
  store ptr %84, ptr %82, align 8, !tbaa !4
  br label %52, !llvm.loop !152

85:                                               ; preds = %62
  %86 = load ptr, ptr %10, align 8, !tbaa !47
  %87 = load ptr, ptr %86, align 8, !tbaa !18
  %88 = load ptr, ptr %11, align 8, !tbaa !18
  %89 = icmp eq ptr %87, %88
  br i1 %89, label %90, label %96

90:                                               ; preds = %85
  %91 = load ptr, ptr %8, align 8, !tbaa !9
  %92 = load ptr, ptr %91, align 8, !tbaa !4
  %93 = load ptr, ptr %9, align 8, !tbaa !4
  %94 = icmp ult ptr %92, %93
  br i1 %94, label %95, label %96

95:                                               ; preds = %90
  store i32 2, ptr %6, align 4
  store i32 1, ptr %13, align 4
  br label %98

96:                                               ; preds = %90, %85
  %97 = load i32, ptr %12, align 4, !tbaa !16
  store i32 %97, ptr %6, align 4
  store i32 1, ptr %13, align 4
  br label %98

98:                                               ; preds = %96, %95
  call void @llvm.lifetime.end.p0(i64 4, ptr %12) #4
  %99 = load i32, ptr %6, align 4
  ret i32 %99
}